target datalayout = "e-m:e-p270:32:32-p271:32:32-p272:64:64-i64:64-i128:128-f80:128-n8:16:32:64-S128"
target triple = "x86_64-pc-linux-gnu"

%struct.evp_Encode_Ctx_st = type { i32, i32, [80 x i8], i32, i32 }

@srpdata_bin2ascii = internal constant [65 x i8] c"0123456789ABCDEFGHIJKLMNOPQRSTUVWXYZabcdefghijklmnopqrstuvwxyz./\00", align 16
@data_bin2ascii = internal constant [65 x i8] c"ABCDEFGHIJKLMNOPQRSTUVWXYZabcdefghijklmnopqrstuvwxyz0123456789+/\00", align 16

; Function Attrs: nounwind uwtable
define internal i32 @evp_encodeblock_int(ptr noundef %0, ptr noundef %1, ptr noundef %2, i32 noundef %3) #0 {
  %5 = alloca ptr, align 8
  %6 = alloca ptr, align 8
  %7 = alloca ptr, align 8
  %8 = alloca i32, align 4
  %9 = alloca i32, align 4
  %10 = alloca i32, align 4
  %11 = alloca i64, align 8
  %12 = alloca ptr, align 8
  store ptr %0, ptr %5, align 8, !tbaa !3
  store ptr %1, ptr %6, align 8, !tbaa !15
  store ptr %2, ptr %7, align 8, !tbaa !15
  store i32 %3, ptr %8, align 4, !tbaa !11
  call void @llvm.lifetime.start.p0(i64 4, ptr %9) #5
  call void @llvm.lifetime.start.p0(i64 4, ptr %10) #5
  store i32 0, ptr %10, align 4, !tbaa !11
  call void @llvm.lifetime.start.p0(i64 8, ptr %11) #5
  call void @llvm.lifetime.start.p0(i64 8, ptr %12) #5
  %13 = load ptr, ptr %5, align 8, !tbaa !3
  %14 = icmp ne ptr %13, null
  br i1 %14, label %15, label %22

15:                                               ; preds = %4
  %16 = load ptr, ptr %5, align 8, !tbaa !3
  %17 = getelementptr inbounds nuw %struct.evp_Encode_Ctx_st, ptr %16, i32 0, i32 4
  %18 = load i32, ptr %17, align 4, !tbaa !12
  %19 = and i32 %18, 2
  %20 = icmp ne i32 %19, 0
  br i1 %20, label %21, label %22

21:                                               ; preds = %15
  store ptr @srpdata_bin2ascii, ptr %12, align 8, !tbaa !15
  br label %23

22:                                               ; preds = %15, %4
  store ptr @data_bin2ascii, ptr %12, align 8, !tbaa !15
  br label %23

23:                                               ; preds = %22, %21
  %24 = load i32, ptr %8, align 4, !tbaa !11
  store i32 %24, ptr %9, align 4, !tbaa !11
  br label %25

25:                                               ; preds = %135, %23
  %26 = load i32, ptr %9, align 4, !tbaa !11
  %27 = icmp sgt i32 %26, 0
  br i1 %27, label %28, label %138

28:                                               ; preds = %25
  %29 = load i32, ptr %9, align 4, !tbaa !11
  %30 = icmp sge i32 %29, 3
  br i1 %30, label %31, label %79

31:                                               ; preds = %28
  %32 = load ptr, ptr %7, align 8, !tbaa !15
  %33 = getelementptr inbounds i8, ptr %32, i64 0
  %34 = load i8, ptr %33, align 1, !tbaa !21
  %35 = zext i8 %34 to i64
  %36 = shl i64 %35, 16
  %37 = load ptr, ptr %7, align 8, !tbaa !15
  %38 = getelementptr inbounds i8, ptr %37, i64 1
  %39 = load i8, ptr %38, align 1, !tbaa !21
  %40 = zext i8 %39 to i64
  %41 = shl i64 %40, 8
  %42 = or i64 %36, %41
  %43 = load ptr, ptr %7, align 8, !tbaa !15
  %44 = getelementptr inbounds i8, ptr %43, i64 2
  %45 = load i8, ptr %44, align 1, !tbaa !21
  %46 = zext i8 %45 to i64
  %47 = or i64 %42, %46
  store i64 %47, ptr %11, align 8, !tbaa !19
  %48 = load ptr, ptr %12, align 8, !tbaa !15
  %49 = load i64, ptr %11, align 8, !tbaa !19
  %50 = lshr i64 %49, 18
  %51 = and i64 %50, 63
  %52 = getelementptr inbounds nuw i8, ptr %48, i64 %51
  %53 = load i8, ptr %52, align 1, !tbaa !21
  %54 = load ptr, ptr %6, align 8, !tbaa !15
  %55 = getelementptr inbounds nuw i8, ptr %54, i32 1
  store ptr %55, ptr %6, align 8, !tbaa !15
  store i8 %53, ptr %54, align 1, !tbaa !21
  %56 = load ptr, ptr %12, align 8, !tbaa !15
  %57 = load i64, ptr %11, align 8, !tbaa !19
  %58 = lshr i64 %57, 12
  %59 = and i64 %58, 63
  %60 = getelementptr inbounds nuw i8, ptr %56, i64 %59
  %61 = load i8, ptr %60, align 1, !tbaa !21
  %62 = load ptr, ptr %6, align 8, !tbaa !15
  %63 = getelementptr inbounds nuw i8, ptr %62, i32 1
  store ptr %63, ptr %6, align 8, !tbaa !15
  store i8 %61, ptr %62, align 1, !tbaa !21
  %64 = load ptr, ptr %12, align 8, !tbaa !15
  %65 = load i64, ptr %11, align 8, !tbaa !19
  %66 = lshr i64 %65, 6
  %67 = and i64 %66, 63
  %68 = getelementptr inbounds nuw i8, ptr %64, i64 %67
  %69 = load i8, ptr %68, align 1, !tbaa !21
  %70 = load ptr, ptr %6, align 8, !tbaa !15
  %71 = getelementptr inbounds nuw i8, ptr %70, i32 1
  store ptr %71, ptr %6, align 8, !tbaa !15
  store i8 %69, ptr %70, align 1, !tbaa !21
  %72 = load ptr, ptr %12, align 8, !tbaa !15
  %73 = load i64, ptr %11, align 8, !tbaa !19
  %74 = and i64 %73, 63
  %75 = getelementptr inbounds nuw i8, ptr %72, i64 %74
  %76 = load i8, ptr %75, align 1, !tbaa !21
  %77 = load ptr, ptr %6, align 8, !tbaa !15
  %78 = getelementptr inbounds nuw i8, ptr %77, i32 1
  store ptr %78, ptr %6, align 8, !tbaa !15
  store i8 %76, ptr %77, align 1, !tbaa !21
  br label %130

79:                                               ; preds = %28
  %80 = load ptr, ptr %7, align 8, !tbaa !15
  %81 = getelementptr inbounds i8, ptr %80, i64 0
  %82 = load i8, ptr %81, align 1, !tbaa !21
  %83 = zext i8 %82 to i64
  %84 = shl i64 %83, 16
  store i64 %84, ptr %11, align 8, !tbaa !19
  %85 = load i32, ptr %9, align 4, !tbaa !11
  %86 = icmp eq i32 %85, 2
  br i1 %86, label %87, label %95

87:                                               ; preds = %79
  %88 = load ptr, ptr %7, align 8, !tbaa !15
  %89 = getelementptr inbounds i8, ptr %88, i64 1
  %90 = load i8, ptr %89, align 1, !tbaa !21
  %91 = zext i8 %90 to i64
  %92 = shl i64 %91, 8
  %93 = load i64, ptr %11, align 8, !tbaa !19
  %94 = or i64 %93, %92
  store i64 %94, ptr %11, align 8, !tbaa !19
  br label %95

95:                                               ; preds = %87, %79
  %96 = load ptr, ptr %12, align 8, !tbaa !15
  %97 = load i64, ptr %11, align 8, !tbaa !19
  %98 = lshr i64 %97, 18
  %99 = and i64 %98, 63
  %100 = getelementptr inbounds nuw i8, ptr %96, i64 %99
  %101 = load i8, ptr %100, align 1, !tbaa !21
  %102 = load ptr, ptr %6, align 8, !tbaa !15
  %103 = getelementptr inbounds nuw i8, ptr %102, i32 1
  store ptr %103, ptr %6, align 8, !tbaa !15
  store i8 %101, ptr %102, align 1, !tbaa !21
  %104 = load ptr, ptr %12, align 8, !tbaa !15
  %105 = load i64, ptr %11, align 8, !tbaa !19
  %106 = lshr i64 %105, 12
  %107 = and i64 %106, 63
  %108 = getelementptr inbounds nuw i8, ptr %104, i64 %107
  %109 = load i8, ptr %108, align 1, !tbaa !21
  %110 = load ptr, ptr %6, align 8, !tbaa !15
  %111 = getelementptr inbounds nuw i8, ptr %110, i32 1
  store ptr %111, ptr %6, align 8, !tbaa !15
  store i8 %109, ptr %110, align 1, !tbaa !21
  %112 = load i32, ptr %9, align 4, !tbaa !11
  %113 = icmp eq i32 %112, 1
  br i1 %113, label %114, label %115

114:                                              ; preds = %95
  br label %123

115:                                              ; preds = %95
  %116 = load ptr, ptr %12, align 8, !tbaa !15
  %117 = load i64, ptr %11, align 8, !tbaa !19
  %118 = lshr i64 %117, 6
  %119 = and i64 %118, 63
  %120 = getelementptr inbounds nuw i8, ptr %116, i64 %119
  %121 = load i8, ptr %120, align 1, !tbaa !21
  %122 = zext i8 %121 to i32
  br label %123

123:                                              ; preds = %115, %114
  %124 = phi i32 [ 61, %114 ], [ %122, %115 ]
  %125 = trunc i32 %124 to i8
  %126 = load ptr, ptr %6, align 8, !tbaa !15
  %127 = getelementptr inbounds nuw i8, ptr %126, i32 1
  store ptr %127, ptr %6, align 8, !tbaa !15
  store i8 %125, ptr %126, align 1, !tbaa !21
  %128 = load ptr, ptr %6, align 8, !tbaa !15
  %129 = getelementptr inbounds nuw i8, ptr %128, i32 1
  store ptr %129, ptr %6, align 8, !tbaa !15
  store i8 61, ptr %128, align 1, !tbaa !21
  br label %130

130:                                              ; preds = %123, %31
  %131 = load i32, ptr %10, align 4, !tbaa !11
  %132 = add nsw i32 %131, 4
  store i32 %132, ptr %10, align 4, !tbaa !11
  %133 = load ptr, ptr %7, align 8, !tbaa !15
  %134 = getelementptr inbounds i8, ptr %133, i64 3
  store ptr %134, ptr %7, align 8, !tbaa !15
  br label %135

135:                                              ; preds = %130
  %136 = load i32, ptr %9, align 4, !tbaa !11
  %137 = sub nsw i32 %136, 3
  store i32 %137, ptr %9, align 4, !tbaa !11
  br label %25, !llvm.loop !24

138:                                              ; preds = %25
  %139 = load ptr, ptr %6, align 8, !tbaa !15
  store i8 0, ptr %139, align 1, !tbaa !21
  %140 = load i32, ptr %10, align 4, !tbaa !11
  call void @llvm.lifetime.end.p0(i64 8, ptr %12) #5
  call void @llvm.lifetime.end.p0(i64 8, ptr %11) #5
  call void @llvm.lifetime.end.p0(i64 4, ptr %10) #5
  call void @llvm.lifetime.end.p0(i64 4, ptr %9) #5
  ret i32 %140
}

; Function Attrs: nounwind uwtable
define i32 @EVP_EncodeBlock(ptr noundef %0, ptr noundef %1, i32 noundef %2) #0 {
  %4 = alloca ptr, align 8
  %5 = alloca ptr, align 8
  %6 = alloca i32, align 4
  store ptr %0, ptr %4, align 8, !tbaa !15
  store ptr %1, ptr %5, align 8, !tbaa !15
  store i32 %2, ptr %6, align 4, !tbaa !11
  %7 = load ptr, ptr %4, align 8, !tbaa !15
  %8 = load ptr, ptr %5, align 8, !tbaa !15
  %9 = load i32, ptr %6, align 4, !tbaa !11
  %10 = call i32 @evp_encodeblock_int(ptr noundef null, ptr noundef %7, ptr noundef %8, i32 noundef %9)
  ret i32 %10
}