; Function Attrs: nofree norecurse nosync nounwind memory(argmem: readwrite) uwtable
define range(i32 4, 1) i32 @EVP_EncodeBlock(ptr noundef writeonly captures(none) %0, ptr noundef readonly captures(none) %1, i32 noundef %2) local_unnamed_addr #7 {
  %4 = icmp sgt i32 %2, 0
  br i1 %4, label %.lr.ph.i, label %evp_encodeblock_int.exit

.lr.ph.i:                                         ; preds = %3, %36
  %.04050.i = phi i32 [ %63, %36 ], [ 0, %3 ]
  %.04149.i = phi i32 [ %65, %36 ], [ %2, %3 ]
  %.04248.i = phi ptr [ %.1.i, %36 ], [ %0, %3 ]
  %.04346.i = phi ptr [ %64, %36 ], [ %1, %3 ]
  %5 = icmp samesign ugt i32 %.04149.i, 2
  %6 = load i8, ptr %.04346.i, align 1, !tbaa !12
  %7 = zext i8 %6 to i64
  %8 = shl nuw nsw i64 %7, 16
  br i1 %5, label %36, label %9

9:                                                ; preds = %.lr.ph.i
  %10 = icmp eq i32 %.04149.i, 2
  br i1 %10, label %11, label %17

11:                                               ; preds = %9
  %12 = getelementptr inbounds nuw i8, ptr %.04346.i, i64 1
  %13 = load i8, ptr %12, align 1, !tbaa !12
  %14 = zext i8 %13 to i64
  %15 = shl nuw nsw i64 %14, 8
  %16 = or disjoint i64 %15, %8
  br label %17

17:                                               ; preds = %11, %9
  %.039.i = phi i64 [ %16, %11 ], [ %8, %9 ]
  %18 = lshr i64 %.039.i, 18
  %19 = getelementptr inbounds nuw i8, ptr @data_bin2ascii, i64 %18
  %20 = load i8, ptr %19, align 1, !tbaa !12
  %21 = getelementptr inbounds nuw i8, ptr %.04248.i, i64 1
  store i8 %20, ptr %.04248.i, align 1, !tbaa !12
  %22 = lshr i64 %.039.i, 12
  %23 = and i64 %22, 63
  %24 = getelementptr inbounds nuw i8, ptr @data_bin2ascii, i64 %23
  %25 = load i8, ptr %24, align 1, !tbaa !12
  %26 = getelementptr inbounds nuw i8, ptr %.04248.i, i64 2
  store i8 %25, ptr %21, align 1, !tbaa !12
  %27 = icmp eq i32 %.04149.i, 1
  br i1 %27, label %.thread.i, label %28

28:                                               ; preds = %17
  %29 = lshr i64 %.039.i, 6
  %30 = and i64 %29, 63
  %31 = getelementptr inbounds nuw i8, ptr @data_bin2ascii, i64 %30
  %32 = load i8, ptr %31, align 1, !tbaa !12
  br label %.thread.i

.thread.i:                                        ; preds = %28, %17
  %33 = phi i8 [ %32, %28 ], [ 61, %17 ]
  %34 = getelementptr inbounds nuw i8, ptr %.04248.i, i64 3
  store i8 %33, ptr %26, align 1, !tbaa !12
  store i8 61, ptr %34, align 1, !tbaa !12
  %.152.i = getelementptr inbounds nuw i8, ptr %.04248.i, i64 4
  %35 = add nuw nsw i32 %.04050.i, 4
  br label %evp_encodeblock_int.exit

36:                                               ; preds = %.lr.ph.i
  %37 = getelementptr inbounds nuw i8, ptr %.04346.i, i64 1
  %38 = load i8, ptr %37, align 1, !tbaa !12
  %39 = zext i8 %38 to i64
  %40 = shl nuw nsw i64 %39, 8
  %41 = getelementptr inbounds nuw i8, ptr %.04346.i, i64 2
  %42 = load i8, ptr %41, align 1, !tbaa !12
  %43 = zext i8 %42 to i64
  %44 = or disjoint i64 %40, %43
  %45 = or disjoint i64 %40, %8
  %46 = lshr i64 %7, 2
  %47 = getelementptr inbounds nuw i8, ptr @data_bin2ascii, i64 %46
  %48 = load i8, ptr %47, align 1, !tbaa !12
  %49 = getelementptr inbounds nuw i8, ptr %.04248.i, i64 1
  store i8 %48, ptr %.04248.i, align 1, !tbaa !12
  %50 = lshr i64 %45, 12
  %51 = and i64 %50, 63
  %52 = getelementptr inbounds nuw i8, ptr @data_bin2ascii, i64 %51
  %53 = load i8, ptr %52, align 1, !tbaa !12
  %54 = getelementptr inbounds nuw i8, ptr %.04248.i, i64 2
  store i8 %53, ptr %49, align 1, !tbaa !12
  %55 = lshr i64 %44, 6
  %56 = and i64 %55, 63
  %57 = getelementptr inbounds nuw i8, ptr @data_bin2ascii, i64 %56
  %58 = load i8, ptr %57, align 1, !tbaa !12
  %59 = getelementptr inbounds nuw i8, ptr %.04248.i, i64 3
  store i8 %58, ptr %54, align 1, !tbaa !12
  %60 = and i64 %43, 63
  %61 = getelementptr inbounds nuw i8, ptr @data_bin2ascii, i64 %60
  %62 = load i8, ptr %61, align 1, !tbaa !12
  store i8 %62, ptr %59, align 1, !tbaa !12
  %.1.i = getelementptr inbounds nuw i8, ptr %.04248.i, i64 4
  %63 = add nuw nsw i32 %.04050.i, 4
  %64 = getelementptr inbounds nuw i8, ptr %.04346.i, i64 3
  %65 = add nsw i32 %.04149.i, -3
  %.not58.i = icmp eq i32 %.04149.i, 3
  br i1 %.not58.i, label %evp_encodeblock_int.exit, label %.lr.ph.i, !llvm.loop !13

evp_encodeblock_int.exit:                         ; preds = %36, %3, %.thread.i
  %.042.lcssa.i = phi ptr [ %0, %3 ], [ %.152.i, %.thread.i ], [ %.1.i, %36 ]
  %.040.lcssa.i = phi i32 [ 0, %3 ], [ %35, %.thread.i ], [ %63, %36 ]
  store i8 0, ptr %.042.lcssa.i, align 1, !tbaa !12
  ret i32 %.040.lcssa.i
}